target datalayout = "e-m:e-p270:32:32-p271:32:32-p272:64:64-i64:64-i128:128-f80:128-n8:16:32:64-S128"
target triple = "x86_64-pc-linux-gnu"

; Function Attrs: nounwind uwtable
define internal void @add_one_and_zeros_padding(ptr noundef %0, i64 noundef %1, i64 noundef %2) #0 {
  %4 = alloca ptr, align 8
  %5 = alloca i64, align 8
  %6 = alloca i64, align 8
  %7 = alloca i64, align 8
  %8 = alloca i8, align 1
  store ptr %0, ptr %4, align 8, !tbaa !18
  store i64 %1, ptr %5, align 8, !tbaa !43
  store i64 %2, ptr %6, align 8, !tbaa !43
  call void @llvm.lifetime.start.p0(i64 8, ptr %7) #7
  %9 = load i64, ptr %5, align 8, !tbaa !43
  %10 = load i64, ptr %6, align 8, !tbaa !43
  %11 = sub i64 %9, %10
  store i64 %11, ptr %7, align 8, !tbaa !43
  call void @llvm.lifetime.start.p0(i64 1, ptr %8) #7
  store i8 0, ptr %8, align 1, !tbaa !57
  %12 = load ptr, ptr %4, align 8, !tbaa !18
  %13 = load i64, ptr %6, align 8, !tbaa !43
  %14 = getelementptr inbounds nuw i8, ptr %12, i64 %13
  store i8 -128, ptr %14, align 1, !tbaa !57
  store i8 1, ptr %8, align 1, !tbaa !57
  br label %15

15:                                               ; preds = %27, %3
  %16 = load i8, ptr %8, align 1, !tbaa !57
  %17 = zext i8 %16 to i64
  %18 = load i64, ptr %7, align 8, !tbaa !43
  %19 = icmp ult i64 %17, %18
  br i1 %19, label %20, label %30

20:                                               ; preds = %15
  %21 = load ptr, ptr %4, align 8, !tbaa !18
  %22 = load i64, ptr %6, align 8, !tbaa !43
  %23 = load i8, ptr %8, align 1, !tbaa !57
  %24 = zext i8 %23 to i64
  %25 = add i64 %22, %24
  %26 = getelementptr inbounds nuw i8, ptr %21, i64 %25
  store i8 0, ptr %26, align 1, !tbaa !57
  br label %27

27:                                               ; preds = %20
  %28 = load i8, ptr %8, align 1, !tbaa !57
  %29 = add i8 %28, 1
  store i8 %29, ptr %8, align 1, !tbaa !57
  br label %15, !llvm.loop !60

30:                                               ; preds = %15
  call void @llvm.lifetime.end.p0(i64 1, ptr %8) #7
  call void @llvm.lifetime.end.p0(i64 8, ptr %7) #7
  ret void
}