; Function Attrs: nofree norecurse nosync nounwind memory(argmem: write) uwtable
define internal void @add_one_and_zeros_padding(ptr noundef writeonly captures(none) %0, i64 noundef %1, i64 noundef %2) #13 {
  %4 = sub i64 %1, %2
  %5 = getelementptr inbounds nuw i8, ptr %0, i64 %2
  store i8 -128, ptr %5, align 1, !tbaa !47
  %6 = icmp ugt i64 %4, 1
  br i1 %6, label %.lr.ph, label %._crit_edge

.lr.ph:                                           ; preds = %3, %.lr.ph
  %7 = phi i64 [ %10, %.lr.ph ], [ 1, %3 ]
  %.010 = phi i8 [ %9, %.lr.ph ], [ 1, %3 ]
  %8 = getelementptr i8, ptr %5, i64 %7
  store i8 0, ptr %8, align 1, !tbaa !47
  %9 = add i8 %.010, 1
  %10 = zext i8 %9 to i64
  %11 = icmp ugt i64 %4, %10
  br i1 %11, label %.lr.ph, label %._crit_edge, !llvm.loop !53

._crit_edge:                                      ; preds = %.lr.ph, %3
  ret void
}